target datalayout = "e-m:e-p270:32:32-p271:32:32-p272:64:64-i64:64-i128:128-f80:128-n8:16:32:64-S128"
target triple = "x86_64-pc-linux-gnu"

%"class.std::__cxx11::basic_string" = type { %"struct.std::__cxx11::basic_string<char>::_Alloc_hider", i64, %union.anon }
%"struct.std::__cxx11::basic_string<char>::_Alloc_hider" = type { ptr }
%union.anon = type { i64, [8 x i8] }
%"class.clang::SourceLocation" = type { i32 }
%"class.clang::VerifyDiagnosticConsumer::Directive" = type <{ ptr, %"class.clang::SourceLocation", %"class.clang::SourceLocation", %"class.std::__cxx11::basic_string", i32, i32, i8, i8, [6 x i8] }>
%"class.(anonymous namespace)::RegexDirective" = type { %"class.clang::VerifyDiagnosticConsumer::Directive.base", [6 x i8], %"class.llvm::Regex" }
%"class.clang::VerifyDiagnosticConsumer::Directive.base" = type <{ ptr, %"class.clang::SourceLocation", %"class.clang::SourceLocation", %"class.std::__cxx11::basic_string", i32, i32, i8, i8 }>
%"class.llvm::Regex" = type <{ ptr, i32, [4 x i8] }>

; Function Attrs: mustprogress nounwind uwtable
define linkonce_odr hidden void @_ZN5clang24VerifyDiagnosticConsumer9DirectiveD2Ev(ptr noundef nonnull align 8 dereferenceable(58) %0) unnamed_addr #0 comdat align 2 {
  %2 = alloca ptr, align 8
  store ptr %0, ptr %2, align 8
  %3 = load ptr, ptr %2, align 8
  store ptr getelementptr inbounds inrange(-16, 32) ({ [6 x ptr] }, ptr @_ZTVN5clang24VerifyDiagnosticConsumer9DirectiveE, i32 0, i32 0, i32 2), ptr %3, align 8
  %4 = getelementptr inbounds nuw %"class.clang::VerifyDiagnosticConsumer::Directive", ptr %3, i32 0, i32 3
  call void @_ZNSt7__cxx1112basic_stringIcSt11char_traitsIcESaIcEED1Ev(ptr noundef nonnull align 8 dereferenceable(32) %4) #14
  ret void
}

; Function Attrs: mustprogress nounwind uwtable
define internal void @_ZN12_GLOBAL__N_114RegexDirectiveD2Ev(ptr noundef nonnull align 8 dereferenceable(80) %0) unnamed_addr #0 align 2 {
  %2 = alloca ptr, align 8
  store ptr %0, ptr %2, align 8
  %3 = load ptr, ptr %2, align 8
  store ptr getelementptr inbounds inrange(-16, 32) ({ [6 x ptr] }, ptr @_ZTVN12_GLOBAL__N_114RegexDirectiveE, i32 0, i32 0, i32 2), ptr %3, align 8
  %4 = getelementptr inbounds nuw %"class.(anonymous namespace)::RegexDirective", ptr %3, i32 0, i32 2
  call void @_ZN4llvm5RegexD1Ev(ptr noundef nonnull align 8 dereferenceable(12) %4) #14
  call void @_ZN5clang24VerifyDiagnosticConsumer9DirectiveD2Ev(ptr noundef nonnull align 8 dereferenceable(58) %3) #14
  ret void
}